; Function Attrs: mustprogress sspstrong uwtable
define range(i64 1099511627776, 0) i64 @_ZN3tbb6detail2r122threading_control_impl24calculate_workers_limitsEv() local_unnamed_addr #0 align 2 personality ptr @__gxx_personality_v0 {
  %1 = load atomic i8, ptr @_ZGVZN3tbb6detail2r18governor19default_num_threadsEvE11num_threads acquire, align 8
  %2 = icmp eq i8 %1, 0
  br i1 %2, label %3, label %_ZN3tbb6detail2r18governor19default_num_threadsEv.exit, !prof !3

3:                                                ; preds = %0
  %4 = tail call i32 @__cxa_guard_acquire(ptr nonnull @_ZGVZN3tbb6detail2r18governor19default_num_threadsEvE11num_threads) #16
  %.not.i = icmp eq i32 %4, 0
  br i1 %.not.i, label %_ZN3tbb6detail2r18governor19default_num_threadsEv.exit, label %5

5:                                                ; preds = %3
  %6 = invoke noundef i32 @_ZN3tbb6detail2r122AvailableHwConcurrencyEv()
          to label %7 unwind label %8

7:                                                ; preds = %5
  store i32 %6, ptr @_ZZN3tbb6detail2r18governor19default_num_threadsEvE11num_threads, align 4, !tbaa !4
  tail call void @__cxa_guard_release(ptr nonnull @_ZGVZN3tbb6detail2r18governor19default_num_threadsEvE11num_threads) #16
  br label %_ZN3tbb6detail2r18governor19default_num_threadsEv.exit

common.resume:                                    ; preds = %32, %19, %8
  %common.resume.op = phi { ptr, i32 } [ %9, %8 ], [ %20, %19 ], [ %33, %32 ]
  tail call void @__cxa_guard_abort(ptr nonnull @_ZGVZN3tbb6detail2r18governor19default_num_threadsEvE11num_threads) #16
  resume { ptr, i32 } %common.resume.op

8:                                                ; preds = %5
  %9 = landingpad { ptr, i32 }
          cleanup
  br label %common.resume

_ZN3tbb6detail2r18governor19default_num_threadsEv.exit: ; preds = %0, %3, %7
  %10 = load i32, ptr @_ZZN3tbb6detail2r18governor19default_num_threadsEvE11num_threads, align 4, !tbaa !4
  %11 = tail call noundef i64 @_ZN3tbb6detail2r134global_control_active_value_unsafeENS0_2d114global_control9parameterE(i32 noundef 0)
  %12 = load atomic i8, ptr @_ZGVZN3tbb6detail2r18governor19default_num_threadsEvE11num_threads acquire, align 8
  %13 = icmp eq i8 %12, 0
  br i1 %13, label %14, label %_ZN3tbb6detail2r18governor19default_num_threadsEv.exit2, !prof !3

14:                                               ; preds = %_ZN3tbb6detail2r18governor19default_num_threadsEv.exit
  %15 = tail call i32 @__cxa_guard_acquire(ptr nonnull @_ZGVZN3tbb6detail2r18governor19default_num_threadsEvE11num_threads) #16
  %.not.i1 = icmp eq i32 %15, 0
  br i1 %.not.i1, label %_ZN3tbb6detail2r18governor19default_num_threadsEv.exit2, label %16

16:                                               ; preds = %14
  %17 = invoke noundef i32 @_ZN3tbb6detail2r122AvailableHwConcurrencyEv()
          to label %18 unwind label %19

18:                                               ; preds = %16
  store i32 %17, ptr @_ZZN3tbb6detail2r18governor19default_num_threadsEvE11num_threads, align 4, !tbaa !4
  tail call void @__cxa_guard_release(ptr nonnull @_ZGVZN3tbb6detail2r18governor19default_num_threadsEvE11num_threads) #16
  br label %_ZN3tbb6detail2r18governor19default_num_threadsEv.exit2

19:                                               ; preds = %16
  %20 = landingpad { ptr, i32 }
          cleanup
  br label %common.resume

_ZN3tbb6detail2r18governor19default_num_threadsEv.exit2: ; preds = %_ZN3tbb6detail2r18governor19default_num_threadsEv.exit, %14, %18
  %21 = load i32, ptr @_ZZN3tbb6detail2r18governor19default_num_threadsEvE11num_threads, align 4, !tbaa !4
  %22 = tail call noundef i64 @_ZN3tbb6detail2r134global_control_active_value_unsafeENS0_2d114global_control9parameterE(i32 noundef 0)
  %23 = trunc i64 %22 to i32
  %.not.i4 = icmp eq i32 %23, 0
  br i1 %.not.i4, label %24, label %_ZN3tbb6detail2r122threading_control_impl23calc_workers_soft_limitEj.exit

24:                                               ; preds = %_ZN3tbb6detail2r18governor19default_num_threadsEv.exit2
  %25 = load atomic i8, ptr @_ZGVZN3tbb6detail2r18governor19default_num_threadsEvE11num_threads acquire, align 8
  %26 = icmp eq i8 %25, 0
  br i1 %26, label %27, label %_ZN3tbb6detail2r18governor19default_num_threadsEv.exit.i, !prof !3

27:                                               ; preds = %24
  %28 = tail call i32 @__cxa_guard_acquire(ptr nonnull @_ZGVZN3tbb6detail2r18governor19default_num_threadsEvE11num_threads) #16
  %.not.i.i = icmp eq i32 %28, 0
  br i1 %.not.i.i, label %_ZN3tbb6detail2r18governor19default_num_threadsEv.exit.i, label %29

29:                                               ; preds = %27
  %30 = invoke noundef i32 @_ZN3tbb6detail2r122AvailableHwConcurrencyEv()
          to label %31 unwind label %32

31:                                               ; preds = %29
  store i32 %30, ptr @_ZZN3tbb6detail2r18governor19default_num_threadsEvE11num_threads, align 4, !tbaa !4
  tail call void @__cxa_guard_release(ptr nonnull @_ZGVZN3tbb6detail2r18governor19default_num_threadsEvE11num_threads) #16
  br label %_ZN3tbb6detail2r18governor19default_num_threadsEv.exit.i

32:                                               ; preds = %29
  %33 = landingpad { ptr, i32 }
          cleanup
  br label %common.resume

_ZN3tbb6detail2r18governor19default_num_threadsEv.exit.i: ; preds = %31, %27, %24
  %34 = load i32, ptr @_ZZN3tbb6detail2r18governor19default_num_threadsEvE11num_threads, align 4, !tbaa !4
  br label %_ZN3tbb6detail2r122threading_control_impl23calc_workers_soft_limitEj.exit

_ZN3tbb6detail2r122threading_control_impl23calc_workers_soft_limitEj.exit: ; preds = %_ZN3tbb6detail2r18governor19default_num_threadsEv.exit2, %_ZN3tbb6detail2r18governor19default_num_threadsEv.exit.i
  %.in.i = phi i32 [ %34, %_ZN3tbb6detail2r18governor19default_num_threadsEv.exit.i ], [ %23, %_ZN3tbb6detail2r18governor19default_num_threadsEv.exit2 ]
  %35 = trunc i64 %11 to i32
  %36 = icmp ult i32 %10, 129
  %37 = select i1 %36, i32 2, i32 1
  %38 = shl i32 %21, %37
  %..i = tail call i32 @llvm.umax.i32(i32 %38, i32 %35)
  %..i3 = tail call i32 @llvm.umax.i32(i32 %..i, i32 256)
  %39 = add i32 %.in.i, -1
  %.not9.i = icmp ult i32 %39, %..i3
  %40 = add i32 %..i3, -1
  %spec.select.i = select i1 %.not9.i, i32 %39, i32 %40
  %.sroa.2.0.insert.ext.i = zext i32 %..i3 to i64
  %.sroa.2.0.insert.shift.i = shl nuw i64 %.sroa.2.0.insert.ext.i, 32
  %.sroa.0.0.insert.ext.i = zext i32 %spec.select.i to i64
  %.sroa.0.0.insert.insert.i = or disjoint i64 %.sroa.2.0.insert.shift.i, %.sroa.0.0.insert.ext.i
  ret i64 %.sroa.0.0.insert.insert.i
}